target datalayout = "e-m:e-p270:32:32-p271:32:32-p272:64:64-i64:64-i128:128-f80:128-n8:16:32:64-S128"
target triple = "x86_64-pc-linux-gnu"

%struct.slurm_jc_conf = type { i8, ptr, ptr, ptr, i32, i32, ptr, i8, ptr, i8 }

@jc_conf = internal global ptr null, align 8
@.str.76 = private unnamed_addr constant [9 x i8] c"/dev/shm\00", align 1
@.str.84 = private unnamed_addr constant [31 x i8] c"%s: umount /dev/shm failed: %m\00", align 1
@__func__._mount_private_shm = private unnamed_addr constant [19 x i8] c"_mount_private_shm\00", align 1
@.str.85 = private unnamed_addr constant [6 x i8] c"tmpfs\00", align 1
@.str.86 = private unnamed_addr constant [30 x i8] c"%s: /dev/shm mount failed: %m\00", align 1

; Function Attrs: nounwind uwtable
define internal i32 @_mount_private_shm() #0 {
  %1 = alloca i32, align 4
  %2 = alloca ptr, align 8
  %3 = alloca i32, align 4
  %4 = alloca i32, align 4
  call void @llvm.lifetime.start.p0(i64 8, ptr %2) #8
  store ptr null, ptr %2, align 8
  call void @llvm.lifetime.start.p0(i64 4, ptr %3) #8
  store i32 0, ptr %3, align 4
  %5 = load ptr, ptr @jc_conf, align 8
  %6 = getelementptr inbounds nuw %struct.slurm_jc_conf, ptr %5, i32 0, i32 6
  %7 = load ptr, ptr %6, align 8
  %8 = call ptr @slurm_xstrcasestr(ptr noundef %7, ptr noundef @.str.76)
  store ptr %8, ptr %2, align 8
  %9 = icmp ne ptr %8, null
  br i1 %9, label %12, label %10

10:                                               ; preds = %0
  %11 = load i32, ptr %3, align 4
  store i32 %11, ptr %1, align 4
  store i32 1, ptr %4, align 4
  br label %51

12:                                               ; preds = %0
  %13 = load ptr, ptr %2, align 8
  %14 = getelementptr inbounds i8, ptr %13, i64 8
  %15 = load i8, ptr %14, align 1
  %16 = sext i8 %15 to i32
  %17 = icmp eq i32 %16, 44
  br i1 %17, label %26, label %18

18:                                               ; preds = %12
  %19 = load ptr, ptr %2, align 8
  %20 = getelementptr inbounds i8, ptr %19, i64 8
  %21 = load i8, ptr %20, align 1
  %22 = sext i8 %21 to i32
  %23 = icmp eq i32 %22, 0
  br i1 %23, label %26, label %24

24:                                               ; preds = %18
  %25 = load i32, ptr %3, align 4
  store i32 %25, ptr %1, align 4
  store i32 1, ptr %4, align 4
  br label %51

26:                                               ; preds = %18, %12
  %27 = load ptr, ptr @jc_conf, align 8
  %28 = getelementptr inbounds nuw %struct.slurm_jc_conf, ptr %27, i32 0, i32 9
  %29 = load i8, ptr %28, align 8, !range !8, !noundef !9
  %30 = trunc i8 %29 to i1
  br i1 %30, label %43, label %31

31:                                               ; preds = %26
  %32 = call i32 @umount(ptr noundef @.str.76) #8
  store i32 %32, ptr %3, align 4
  %33 = load i32, ptr %3, align 4
  %34 = icmp ne i32 %33, 0
  br i1 %34, label %35, label %42

35:                                               ; preds = %31
  %36 = call ptr @__errno_location() #9
  %37 = load i32, ptr %36, align 4
  %38 = icmp ne i32 %37, 22
  br i1 %38, label %39, label %42

39:                                               ; preds = %35
  %40 = call i32 (ptr, ...) @slurm_error(ptr noundef @.str.84, ptr noundef @__func__._mount_private_shm)
  %41 = load i32, ptr %3, align 4
  store i32 %41, ptr %1, align 4
  store i32 1, ptr %4, align 4
  br label %51

42:                                               ; preds = %35, %31
  br label %43

43:                                               ; preds = %42, %26
  %44 = call i32 @mount(ptr noundef @.str.85, ptr noundef @.str.76, ptr noundef @.str.85, i64 noundef 0, ptr noundef null) #8
  store i32 %44, ptr %3, align 4
  %45 = load i32, ptr %3, align 4
  %46 = icmp ne i32 %45, 0
  br i1 %46, label %47, label %49

47:                                               ; preds = %43
  %48 = call i32 (ptr, ...) @slurm_error(ptr noundef @.str.86, ptr noundef @__func__._mount_private_shm)
  store i32 -1, ptr %1, align 4
  store i32 1, ptr %4, align 4
  br label %51

49:                                               ; preds = %43
  %50 = load i32, ptr %3, align 4
  store i32 %50, ptr %1, align 4
  store i32 1, ptr %4, align 4
  br label %51

51:                                               ; preds = %49, %47, %39, %24, %10
  call void @llvm.lifetime.end.p0(i64 4, ptr %3) #8
  call void @llvm.lifetime.end.p0(i64 8, ptr %2) #8
  %52 = load i32, ptr %1, align 4
  ret i32 %52
}