; Function Attrs: nounwind uwtable
define internal fastcc i32 @_mount_private_shm() unnamed_addr #0 {
  %1 = load ptr, ptr @jc_conf, align 8
  %2 = getelementptr inbounds nuw i8, ptr %1, i64 40
  %3 = load ptr, ptr %2, align 8
  %4 = tail call ptr @slurm_xstrcasestr(ptr noundef %3, ptr noundef nonnull @.str.76) #12
  %.not = icmp eq ptr %4, null
  br i1 %.not, label %21, label %5

5:                                                ; preds = %0
  %6 = getelementptr inbounds nuw i8, ptr %4, i64 8
  %7 = load i8, ptr %6, align 1
  switch i8 %7, label %21 [
    i8 44, label %8
    i8 0, label %8
  ]

8:                                                ; preds = %5, %5
  %9 = load ptr, ptr @jc_conf, align 8
  %10 = getelementptr inbounds nuw i8, ptr %9, i64 64
  %11 = load i8, ptr %10, align 8, !range !8, !noundef !9
  %12 = trunc nuw i8 %11 to i1
  br i1 %12, label %18, label %13

13:                                               ; preds = %8
  %14 = tail call i32 @umount(ptr noundef nonnull @.str.76) #12
  %.not12 = icmp eq i32 %14, 0
  br i1 %.not12, label %18, label %15

15:                                               ; preds = %13
  %16 = tail call ptr @__errno_location() #13
  %17 = load i32, ptr %16, align 4
  %.not13 = icmp eq i32 %17, 22
  br i1 %.not13, label %18, label %.sink.split

18:                                               ; preds = %13, %15, %8
  %19 = tail call i32 @mount(ptr noundef nonnull @.str.85, ptr noundef nonnull @.str.76, ptr noundef nonnull @.str.85, i64 noundef 0, ptr noundef null) #12
  %.not14 = icmp eq i32 %19, 0
  br i1 %.not14, label %21, label %.sink.split

.sink.split:                                      ; preds = %18, %15
  %.str.86.sink = phi ptr [ @.str.84, %15 ], [ @.str.86, %18 ]
  %.0.ph = phi i32 [ %14, %15 ], [ -1, %18 ]
  %20 = tail call i32 (ptr, ...) @slurm_error(ptr noundef nonnull %.str.86.sink, ptr noundef nonnull @__func__._mount_private_shm) #12
  br label %21

21:                                               ; preds = %.sink.split, %18, %5, %0
  %.0 = phi i32 [ 0, %0 ], [ 0, %5 ], [ 0, %18 ], [ %.0.ph, %.sink.split ]
  ret i32 %.0
}